target datalayout = "e-m:e-p270:32:32-p271:32:32-p272:64:64-i64:64-i128:128-f80:128-n8:16:32:64-S128"
target triple = "x86_64-pc-linux-gnu"

%struct.strbuf = type { i64, i64, ptr }
%struct.ipc_server_data = type { i32, ptr, ptr, %struct.strbuf, ptr, ptr, %union.pthread_mutex_t, %union.pthread_cond_t, ptr, i32, i32, i32, i32, i32, i32 }
%union.pthread_mutex_t = type { %struct.__pthread_mutex_s }
%struct.__pthread_mutex_s = type { i32, i32, i32, i32, i32, i16, i16, %struct.__pthread_internal_list }
%struct.__pthread_internal_list = type { ptr, ptr }
%union.pthread_cond_t = type { %struct.__pthread_cond_s }
%struct.__pthread_cond_s = type { %union.__atomic_wide_counter, %union.__atomic_wide_counter, [2 x i32], [2 x i32], i32, i32, [2 x i32] }
%union.__atomic_wide_counter = type { i64 }

; Function Attrs: nounwind uwtable
define dso_local void @ipc_server_start_async(ptr noundef %0) #0 {
  %2 = alloca ptr, align 8
  store ptr %0, ptr %2, align 8, !tbaa !44
  %3 = load ptr, ptr %2, align 8, !tbaa !44
  %4 = icmp ne ptr %3, null
  br i1 %4, label %5, label %10

5:                                                ; preds = %1
  %6 = load ptr, ptr %2, align 8, !tbaa !44
  %7 = getelementptr inbounds nuw %struct.ipc_server_data, ptr %6, i32 0, i32 12
  %8 = load i32, ptr %7, align 4, !tbaa !72
  %9 = icmp ne i32 %8, 0
  br i1 %9, label %10, label %11

10:                                               ; preds = %5, %1
  br label %17

11:                                               ; preds = %5
  %12 = load ptr, ptr %2, align 8, !tbaa !44
  %13 = getelementptr inbounds nuw %struct.ipc_server_data, ptr %12, i32 0, i32 12
  store i32 1, ptr %13, align 4, !tbaa !72
  %14 = load ptr, ptr %2, align 8, !tbaa !44
  %15 = getelementptr inbounds nuw %struct.ipc_server_data, ptr %14, i32 0, i32 6
  %16 = call i32 @pthread_mutex_unlock(ptr noundef %15) #10
  br label %17

17:                                               ; preds = %11, %10
  ret void
}