; Function Attrs: nounwind uwtable
define dso_local void @ipc_server_start_async(ptr noundef %0) local_unnamed_addr #0 {
  %.not = icmp eq ptr %0, null
  br i1 %.not, label %8, label %2

2:                                                ; preds = %1
  %3 = getelementptr inbounds nuw i8, ptr %0, i64 172
  %4 = load i32, ptr %3, align 4, !tbaa !58
  %.not4 = icmp eq i32 %4, 0
  br i1 %.not4, label %5, label %8

5:                                                ; preds = %2
  store i32 1, ptr %3, align 4, !tbaa !58
  %6 = getelementptr inbounds nuw i8, ptr %0, i64 64
  %7 = tail call i32 @pthread_mutex_unlock(ptr noundef nonnull %6) #13
  br label %8

8:                                                ; preds = %1, %2, %5
  ret void
}